target datalayout = "e-m:e-p270:32:32-p271:32:32-p272:64:64-i64:64-i128:128-f80:128-n8:16:32:64-S128"
target triple = "x86_64-pc-linux-gnu"

@.str.43 = private unnamed_addr constant [1 x i8] zeroinitializer, align 1

; Function Attrs: mustprogress nounwind uwtable
define internal noundef i32 @_ZL8posrelatim(i32 noundef %0, i64 noundef %1) #1 {
  %3 = alloca i32, align 4
  %4 = alloca i64, align 8
  store i32 %0, ptr %3, align 4, !tbaa !24
  store i64 %1, ptr %4, align 8, !tbaa !22
  %5 = load i32, ptr %3, align 4, !tbaa !24
  %6 = icmp slt i32 %5, 0
  br i1 %6, label %7, label %13

7:                                                ; preds = %2
  %8 = load i64, ptr %4, align 8, !tbaa !22
  %9 = trunc i64 %8 to i32
  %10 = add nsw i32 %9, 1
  %11 = load i32, ptr %3, align 4, !tbaa !24
  %12 = add nsw i32 %11, %10
  store i32 %12, ptr %3, align 4, !tbaa !24
  br label %13

13:                                               ; preds = %7, %2
  %14 = load i32, ptr %3, align 4, !tbaa !24
  %15 = icmp sge i32 %14, 0
  br i1 %15, label %16, label %18

16:                                               ; preds = %13
  %17 = load i32, ptr %3, align 4, !tbaa !24
  br label %19

18:                                               ; preds = %13
  br label %19

19:                                               ; preds = %18, %16
  %20 = phi i32 [ %17, %16 ], [ 0, %18 ]
  ret i32 %20
}

; Function Attrs: mustprogress uwtable
define internal noundef i32 @_ZL7str_subP9lua_State(ptr noundef %0) #2 {
  %2 = alloca ptr, align 8
  %3 = alloca i64, align 8
  %4 = alloca ptr, align 8
  %5 = alloca i32, align 4
  %6 = alloca i32, align 4
  store ptr %0, ptr %2, align 8, !tbaa !20
  call void @llvm.lifetime.start.p0(i64 8, ptr %3) #13
  call void @llvm.lifetime.start.p0(i64 8, ptr %4) #13
  %7 = load ptr, ptr %2, align 8, !tbaa !20
  %8 = call noundef ptr @_Z17luaL_checklstringP9lua_StateiPm(ptr noundef %7, i32 noundef 1, ptr noundef %3)
  store ptr %8, ptr %4, align 8, !tbaa !9
  call void @llvm.lifetime.start.p0(i64 4, ptr %5) #13
  %9 = load ptr, ptr %2, align 8, !tbaa !20
  %10 = call noundef i32 @_Z17luaL_checkintegerP9lua_Statei(ptr noundef %9, i32 noundef 2)
  %11 = load i64, ptr %3, align 8, !tbaa !22
  %12 = call noundef i32 @_ZL8posrelatim(i32 noundef %10, i64 noundef %11)
  store i32 %12, ptr %5, align 4, !tbaa !24
  call void @llvm.lifetime.start.p0(i64 4, ptr %6) #13
  %13 = load ptr, ptr %2, align 8, !tbaa !20
  %14 = call noundef i32 @_Z15luaL_optintegerP9lua_Stateii(ptr noundef %13, i32 noundef 3, i32 noundef -1)
  %15 = load i64, ptr %3, align 8, !tbaa !22
  %16 = call noundef i32 @_ZL8posrelatim(i32 noundef %14, i64 noundef %15)
  store i32 %16, ptr %6, align 4, !tbaa !24
  %17 = load i32, ptr %5, align 4, !tbaa !24
  %18 = icmp slt i32 %17, 1
  br i1 %18, label %19, label %20

19:                                               ; preds = %1
  store i32 1, ptr %5, align 4, !tbaa !24
  br label %20

20:                                               ; preds = %19, %1
  %21 = load i32, ptr %6, align 4, !tbaa !24
  %22 = load i64, ptr %3, align 8, !tbaa !22
  %23 = trunc i64 %22 to i32
  %24 = icmp sgt i32 %21, %23
  br i1 %24, label %25, label %28

25:                                               ; preds = %20
  %26 = load i64, ptr %3, align 8, !tbaa !22
  %27 = trunc i64 %26 to i32
  store i32 %27, ptr %6, align 4, !tbaa !24
  br label %28

28:                                               ; preds = %25, %20
  %29 = load i32, ptr %5, align 4, !tbaa !24
  %30 = load i32, ptr %6, align 4, !tbaa !24
  %31 = icmp sle i32 %29, %30
  br i1 %31, label %32, label %44

32:                                               ; preds = %28
  %33 = load ptr, ptr %2, align 8, !tbaa !20
  %34 = load ptr, ptr %4, align 8, !tbaa !9
  %35 = load i32, ptr %5, align 4, !tbaa !24
  %36 = sext i32 %35 to i64
  %37 = getelementptr inbounds i8, ptr %34, i64 %36
  %38 = getelementptr inbounds i8, ptr %37, i64 -1
  %39 = load i32, ptr %6, align 4, !tbaa !24
  %40 = load i32, ptr %5, align 4, !tbaa !24
  %41 = sub nsw i32 %39, %40
  %42 = add nsw i32 %41, 1
  %43 = sext i32 %42 to i64
  call void @_Z15lua_pushlstringP9lua_StatePKcm(ptr noundef %33, ptr noundef %38, i64 noundef %43)
  br label %46

44:                                               ; preds = %28
  %45 = load ptr, ptr %2, align 8, !tbaa !20
  call void @_Z15lua_pushlstringP9lua_StatePKcm(ptr noundef %45, ptr noundef @.str.43, i64 noundef 0)
  br label %46

46:                                               ; preds = %44, %32
  call void @llvm.lifetime.end.p0(i64 4, ptr %6) #13
  call void @llvm.lifetime.end.p0(i64 4, ptr %5) #13
  call void @llvm.lifetime.end.p0(i64 8, ptr %4) #13
  call void @llvm.lifetime.end.p0(i64 8, ptr %3) #13
  ret i32 1
}