; Function Attrs: mustprogress uwtable
define internal noundef i32 @_ZL7str_subP9lua_State(ptr noundef %0) #0 {
  %2 = alloca i64, align 8
  call void @llvm.lifetime.start.p0(i64 8, ptr nonnull %2) #14
  %3 = call noundef ptr @_Z17luaL_checklstringP9lua_StateiPm(ptr noundef %0, i32 noundef 1, ptr noundef nonnull %2)
  %4 = call noundef i32 @_Z17luaL_checkintegerP9lua_Statei(ptr noundef %0, i32 noundef 2)
  %5 = load i64, ptr %2, align 8, !tbaa !4
  %6 = icmp slt i32 %4, 0
  %7 = trunc i64 %5 to i32
  %8 = add nsw i32 %7, 1
  %9 = select i1 %6, i32 %8, i32 0
  %.0.i = add nsw i32 %9, %4
  %10 = call noundef i32 @_Z15luaL_optintegerP9lua_Stateii(ptr noundef %0, i32 noundef 3, i32 noundef -1)
  %11 = load i64, ptr %2, align 8, !tbaa !4
  %12 = icmp slt i32 %10, 0
  %13 = trunc i64 %11 to i32
  %14 = add nsw i32 %13, 1
  %15 = select i1 %12, i32 %14, i32 0
  %.0.i14 = add nsw i32 %15, %10
  %16 = call noundef range(i32 0, -2147483648) i32 @llvm.smax.i32(i32 %.0.i14, i32 0)
  %17 = call i32 @llvm.smax.i32(i32 %.0.i, i32 1)
  %spec.select = call i32 @llvm.smin.i32(i32 %16, i32 %13)
  %.not = icmp sgt i32 %17, %spec.select
  br i1 %.not, label %24, label %18

18:                                               ; preds = %1
  %19 = zext nneg i32 %17 to i64
  %20 = getelementptr inbounds nuw i8, ptr %3, i64 %19
  %21 = getelementptr inbounds i8, ptr %20, i64 -1
  %reass.sub = sub nsw i32 %spec.select, %17
  %22 = add nsw i32 %reass.sub, 1
  %23 = sext i32 %22 to i64
  call void @_Z15lua_pushlstringP9lua_StatePKcm(ptr noundef %0, ptr noundef nonnull %21, i64 noundef %23)
  br label %25

24:                                               ; preds = %1
  call void @_Z15lua_pushlstringP9lua_StatePKcm(ptr noundef %0, ptr noundef nonnull @.str.43, i64 noundef 0)
  br label %25

25:                                               ; preds = %24, %18
  call void @llvm.lifetime.end.p0(i64 8, ptr nonnull %2) #14
  ret i32 1
}